; Function Attrs: mustprogress nounwind uwtable
define internal void @_ZL19convertF2I_slowpathR17C2_MacroAssemblerR13C2GeneralStubIJ8Register11XMMRegisterPhEE(ptr noundef nonnull align 8 dereferenceable(40) %0, ptr noundef nonnull align 8 dereferenceable(136) %1) #0 {
  %3 = alloca %class.Address, align 8
  %4 = alloca %class.Address, align 8
  %5 = alloca %class.Address, align 16
  %6 = alloca %class.AddressLiteral, align 8
  %7 = alloca %class.RuntimeAddress, align 8
  %8 = getelementptr inbounds i8, ptr %1, i64 88
  %.sroa.06.0.copyload = load i32, ptr %8, align 8
  %9 = getelementptr inbounds i8, ptr %1, i64 96
  %.sroa.05.0.copyload = load i32, ptr %9, align 8
  %10 = getelementptr inbounds i8, ptr %1, i64 104
  %11 = load ptr, ptr %10, align 8
  %12 = getelementptr inbounds i8, ptr %1, i64 8
  tail call void @_ZN17AbstractAssembler4bindER5Label(ptr noundef nonnull align 8 dereferenceable(24) %0, ptr noundef nonnull align 8 dereferenceable(33) %12) #11
  tail call void @_ZN14MacroAssembler6subptrE8Registeri(ptr noundef nonnull align 8 dereferenceable(40) %0, i32 4, i32 noundef 8) #11
  store <4 x i32> <i32 4, i32 -1, i32 -1, i32 -1>, ptr %5, align 16
  %13 = getelementptr inbounds i8, ptr %5, i64 16
  store i32 0, ptr %13, align 16
  %14 = getelementptr inbounds i8, ptr %5, i64 20
  store i8 0, ptr %14, align 4
  %15 = getelementptr inbounds i8, ptr %5, i64 24
  store ptr getelementptr inbounds inrange(-16, 72) (i8, ptr @_ZTV10Relocation, i64 16), ptr %15, align 8
  %16 = getelementptr inbounds i8, ptr %5, i64 32
  store ptr null, ptr %16, align 16
  %17 = getelementptr inbounds i8, ptr %5, i64 40
  store i32 0, ptr %17, align 8
  call void @llvm.lifetime.start.p0(i64 64, ptr nonnull %4)
  call void @llvm.memcpy.p0.p0.i64(ptr noundef nonnull align 8 dereferenceable(21) %4, ptr noundef nonnull align 16 dereferenceable(21) %5, i64 21, i1 false)
  %18 = getelementptr inbounds i8, ptr %4, i64 24
  %19 = load ptr, ptr getelementptr inbounds inrange(-32, 56) (i8, ptr @_ZTV10Relocation, i64 32), align 8
  call void %19(ptr noundef nonnull align 8 dereferenceable(20) %15, ptr noundef nonnull align 8 dereferenceable(40) %18) #11
  call void @llvm.lifetime.start.p0(i64 64, ptr nonnull %3)
  call void @llvm.memcpy.p0.p0.i64(ptr noundef nonnull align 8 dereferenceable(21) %3, ptr noundef nonnull align 8 dereferenceable(21) %4, i64 21, i1 false)
  %20 = getelementptr inbounds i8, ptr %3, i64 24
  %21 = load ptr, ptr %18, align 8
  %22 = getelementptr inbounds i8, ptr %21, i64 16
  %23 = load ptr, ptr %22, align 8
  call void %23(ptr noundef nonnull align 8 dereferenceable(20) %18, ptr noundef nonnull align 8 dereferenceable(40) %20) #11
  call void @_ZN9Assembler5movsdE7Address11XMMRegister(ptr noundef nonnull align 8 dereferenceable(40) %0, ptr noundef nonnull %3, i32 %.sroa.05.0.copyload) #11
  call void @llvm.lifetime.end.p0(i64 64, ptr nonnull %3)
  call void @llvm.lifetime.end.p0(i64 64, ptr nonnull %4)
  call void @_ZN14AddressLiteralC2EPhN9relocInfo9relocTypeE(ptr noundef nonnull align 8 dereferenceable(56) %7, ptr noundef %11, i32 noundef 6) #11
  %24 = load ptr, ptr %7, align 8
  %25 = getelementptr inbounds i8, ptr %24, i64 16
  %26 = load ptr, ptr %25, align 8
  call void %26(ptr noundef nonnull align 8 dereferenceable(20) %7, ptr noundef nonnull align 8 dereferenceable(40) %6) #11
  %27 = getelementptr inbounds i8, ptr %6, i64 40
  %28 = getelementptr inbounds i8, ptr %7, i64 40
  call void @llvm.memcpy.p0.p0.i64(ptr noundef nonnull align 8 dereferenceable(16) %27, ptr noundef nonnull align 8 dereferenceable(16) %28, i64 16, i1 false)
  call void @_ZN14MacroAssembler4callE14AddressLiteral8Register(ptr noundef nonnull align 8 dereferenceable(40) %0, ptr noundef nonnull %6, i32 0) #11
  call void @_ZN9Assembler3popE8Register(ptr noundef nonnull align 8 dereferenceable(40) %0, i32 %.sroa.06.0.copyload) #11
  %29 = getelementptr inbounds i8, ptr %1, i64 48
  call void @_ZN9Assembler3jmpER5Labelb(ptr noundef nonnull align 8 dereferenceable(40) %0, ptr noundef nonnull align 8 dereferenceable(33) %29, i1 noundef zeroext true) #11
  ret void
}